target datalayout = "e-m:e-p270:32:32-p271:32:32-p272:64:64-i64:64-i128:128-f80:128-n8:16:32:64-S128"
target triple = "x86_64-pc-linux-gnu"

%struct.DdManager = type { %struct.DdNode, ptr, ptr, ptr, ptr, ptr, ptr, ptr, i32, i32, double, double, double, i32, i32, i32, i32, i32, i32, ptr, ptr, %struct.DdSubtable, i32, i32, i32, i32, i32, i32, i32, double, i32, i32, i32, ptr, i64, double, i32, ptr, ptr, ptr, ptr, ptr, ptr, ptr, i32, ptr, ptr, ptr, ptr, ptr, ptr, i32, i32, i32, double, i32, i32, i32, i32, double, double, i32, i32, i32, i32, i32, i32, i32, i32, i32, ptr, ptr, i32, i32, i32, i32, i32, i32, ptr, ptr, ptr, ptr, ptr, ptr, ptr, ptr, i32, i64, i64, i64, i32, i64, i64, double, double, double, double, double, double, i32, ptr, ptr, i64 }
%struct.DdNode = type { i32, i32, ptr, %union.anon, i64 }
%union.anon = type { %struct.DdChildren }
%struct.DdChildren = type { ptr, ptr }
%struct.DdSubtable = type { ptr, i32, i32, i32, i32, i32, i32, i32, i32, i32, i32, i32 }

; Function Attrs: nounwind uwtable
define ptr @Cudd_addOneZeroMaximum(ptr noundef %0, ptr noundef %1, ptr noundef %2) #0 {
  %4 = alloca ptr, align 8
  %5 = alloca ptr, align 8
  %6 = alloca ptr, align 8
  %7 = alloca ptr, align 8
  store ptr %0, ptr %5, align 8, !tbaa !3
  store ptr %1, ptr %6, align 8, !tbaa !35
  store ptr %2, ptr %7, align 8, !tbaa !35
  %8 = load ptr, ptr %6, align 8, !tbaa !35
  %9 = load ptr, ptr %8, align 8, !tbaa !9
  %10 = load ptr, ptr %7, align 8, !tbaa !35
  %11 = load ptr, ptr %10, align 8, !tbaa !9
  %12 = icmp eq ptr %9, %11
  br i1 %12, label %13, label %17

13:                                               ; preds = %3
  %14 = load ptr, ptr %5, align 8, !tbaa !3
  %15 = getelementptr inbounds nuw %struct.DdManager, ptr %14, i32 0, i32 2
  %16 = load ptr, ptr %15, align 8, !tbaa !36
  store ptr %16, ptr %4, align 8
  br label %59

17:                                               ; preds = %3
  %18 = load ptr, ptr %7, align 8, !tbaa !35
  %19 = load ptr, ptr %18, align 8, !tbaa !9
  %20 = load ptr, ptr %5, align 8, !tbaa !3
  %21 = getelementptr inbounds nuw %struct.DdManager, ptr %20, i32 0, i32 3
  %22 = load ptr, ptr %21, align 8, !tbaa !39
  %23 = icmp eq ptr %19, %22
  br i1 %23, label %24, label %28

24:                                               ; preds = %17
  %25 = load ptr, ptr %5, align 8, !tbaa !3
  %26 = getelementptr inbounds nuw %struct.DdManager, ptr %25, i32 0, i32 2
  %27 = load ptr, ptr %26, align 8, !tbaa !36
  store ptr %27, ptr %4, align 8
  br label %59

28:                                               ; preds = %17
  %29 = load ptr, ptr %6, align 8, !tbaa !35
  %30 = load ptr, ptr %29, align 8, !tbaa !9
  %31 = getelementptr inbounds nuw %struct.DdNode, ptr %30, i32 0, i32 0
  %32 = load i32, ptr %31, align 8, !tbaa !30
  %33 = icmp eq i32 %32, 2147483647
  br i1 %33, label %34, label %58

34:                                               ; preds = %28
  %35 = load ptr, ptr %7, align 8, !tbaa !35
  %36 = load ptr, ptr %35, align 8, !tbaa !9
  %37 = getelementptr inbounds nuw %struct.DdNode, ptr %36, i32 0, i32 0
  %38 = load i32, ptr %37, align 8, !tbaa !30
  %39 = icmp eq i32 %38, 2147483647
  br i1 %39, label %40, label %58

40:                                               ; preds = %34
  %41 = load ptr, ptr %6, align 8, !tbaa !35
  %42 = load ptr, ptr %41, align 8, !tbaa !9
  %43 = getelementptr inbounds nuw %struct.DdNode, ptr %42, i32 0, i32 3
  %44 = load double, ptr %43, align 8, !tbaa !33
  %45 = load ptr, ptr %7, align 8, !tbaa !35
  %46 = load ptr, ptr %45, align 8, !tbaa !9
  %47 = getelementptr inbounds nuw %struct.DdNode, ptr %46, i32 0, i32 3
  %48 = load double, ptr %47, align 8, !tbaa !33
  %49 = fcmp ogt double %44, %48
  br i1 %49, label %50, label %54

50:                                               ; preds = %40
  %51 = load ptr, ptr %5, align 8, !tbaa !3
  %52 = getelementptr inbounds nuw %struct.DdManager, ptr %51, i32 0, i32 1
  %53 = load ptr, ptr %52, align 8, !tbaa !38
  store ptr %53, ptr %4, align 8
  br label %59

54:                                               ; preds = %40
  %55 = load ptr, ptr %5, align 8, !tbaa !3
  %56 = getelementptr inbounds nuw %struct.DdManager, ptr %55, i32 0, i32 2
  %57 = load ptr, ptr %56, align 8, !tbaa !36
  store ptr %57, ptr %4, align 8
  br label %59

58:                                               ; preds = %34, %28
  store ptr null, ptr %4, align 8
  br label %59

59:                                               ; preds = %58, %54, %50, %24, %13
  %60 = load ptr, ptr %4, align 8
  ret ptr %60
}