; Function Attrs: mustprogress nofree norecurse nosync nounwind willreturn memory(read, inaccessiblemem: none) uwtable
define ptr @Cudd_addOneZeroMaximum(ptr noundef readonly captures(none) %0, ptr noundef readonly captures(none) %1, ptr noundef readonly captures(none) %2) local_unnamed_addr #2 {
  %4 = load ptr, ptr %1, align 8, !tbaa !26
  %5 = load ptr, ptr %2, align 8, !tbaa !26
  %6 = icmp eq ptr %4, %5
  br i1 %6, label %.sink.split, label %7

7:                                                ; preds = %3
  %8 = getelementptr inbounds nuw i8, ptr %0, i64 56
  %9 = load ptr, ptr %8, align 8, !tbaa !34
  %10 = icmp eq ptr %5, %9
  br i1 %10, label %.sink.split, label %11

11:                                               ; preds = %7
  %12 = load i32, ptr %4, align 8, !tbaa !27
  %13 = icmp eq i32 %12, 2147483647
  br i1 %13, label %14, label %25

14:                                               ; preds = %11
  %15 = load i32, ptr %5, align 8, !tbaa !27
  %16 = icmp eq i32 %15, 2147483647
  br i1 %16, label %17, label %25

17:                                               ; preds = %14
  %18 = getelementptr inbounds nuw i8, ptr %4, i64 16
  %19 = load double, ptr %18, align 8, !tbaa !30
  %20 = getelementptr inbounds nuw i8, ptr %5, i64 16
  %21 = load double, ptr %20, align 8, !tbaa !30
  %22 = fcmp ogt double %19, %21
  %. = select i1 %22, i64 40, i64 48
  br label %.sink.split

.sink.split:                                      ; preds = %17, %7, %3
  %.sink15 = phi i64 [ 48, %3 ], [ 48, %7 ], [ %., %17 ]
  %23 = getelementptr inbounds nuw i8, ptr %0, i64 %.sink15
  %24 = load ptr, ptr %23, align 8, !tbaa !26
  br label %25

25:                                               ; preds = %.sink.split, %11, %14
  %.0 = phi ptr [ null, %14 ], [ null, %11 ], [ %24, %.sink.split ]
  ret ptr %.0
}